target datalayout = "e-m:e-p270:32:32-p271:32:32-p272:64:64-i64:64-i128:128-f80:128-n8:16:32:64-S128"
target triple = "x86_64-pc-linux-gnu"

%struct.strbuf = type { i64, i64, ptr }
%struct.attr_stack = type { ptr, ptr, i64, i32, i32, ptr }
%struct.stat = type { i64, i64, i64, i32, i32, i32, i32, i64, i64, i64, i64, %struct.timespec, %struct.timespec, %struct.timespec, [3 x i64] }
%struct.timespec = type { i64, i64 }

@.str.4 = private unnamed_addr constant [7 x i8] c"attr.c\00", align 1
@.str.14 = private unnamed_addr constant [1 x i8] zeroinitializer, align 1
@git_gettext_enabled = external global i32, align 4
@.str.19 = private unnamed_addr constant [27 x i8] c"size_t overflow: %lu * %lu\00", align 1
@.str.27 = private unnamed_addr constant [33 x i8] c"negative growth in ALLOC_GROW_BY\00", align 1
@__const.read_attr_from_file.buf = private unnamed_addr constant %struct.strbuf { i64 0, i64 0, ptr @strbuf_slopbuf }, align 8
@.str.29 = private unnamed_addr constant [2 x i8] c"r\00", align 1
@.str.30 = private unnamed_addr constant [37 x i8] c"cannot fstat gitattributes file '%s'\00", align 1
@.str.31 = private unnamed_addr constant [46 x i8] c"ignoring overly large gitattributes file '%s'\00", align 1
@utf8_bom = external constant [0 x i8], align 1

; Function Attrs: inlinehint nounwind uwtable
define internal i64 @st_mult(i64 noundef %0, i64 noundef %1) #5 {
  %3 = alloca i64, align 8
  %4 = alloca i64, align 8
  store i64 %0, ptr %3, align 8, !tbaa !11
  store i64 %1, ptr %4, align 8, !tbaa !11
  %5 = load i64, ptr %3, align 8, !tbaa !11
  %6 = icmp ne i64 %5, 0
  br i1 %6, label %7, label %15

7:                                                ; preds = %2
  %8 = load i64, ptr %4, align 8, !tbaa !11
  %9 = load i64, ptr %3, align 8, !tbaa !11
  %10 = udiv i64 -1, %9
  %11 = icmp ugt i64 %8, %10
  br i1 %11, label %12, label %15

12:                                               ; preds = %7
  %13 = load i64, ptr %3, align 8, !tbaa !11
  %14 = load i64, ptr %4, align 8, !tbaa !11
  call void (ptr, ...) @die(ptr noundef @.str.19, i64 noundef %13, i64 noundef %14) #12
  unreachable

15:                                               ; preds = %7, %2
  %16 = load i64, ptr %3, align 8, !tbaa !11
  %17 = load i64, ptr %4, align 8, !tbaa !11
  %18 = mul i64 %16, %17
  ret i64 %18
}

; Function Attrs: nounwind uwtable
define internal void @handle_attr_line(ptr noundef %0, ptr noundef %1, ptr noundef %2, i32 noundef %3, i32 noundef %4) #0 {
  %6 = alloca ptr, align 8
  %7 = alloca ptr, align 8
  %8 = alloca ptr, align 8
  %9 = alloca i32, align 4
  %10 = alloca i32, align 4
  %11 = alloca ptr, align 8
  %12 = alloca i32, align 4
  %13 = alloca i64, align 8
  store ptr %0, ptr %6, align 8, !tbaa !56
  store ptr %1, ptr %7, align 8, !tbaa !9
  store ptr %2, ptr %8, align 8, !tbaa !9
  store i32 %3, ptr %9, align 4, !tbaa !13
  store i32 %4, ptr %10, align 4, !tbaa !13
  call void @llvm.lifetime.start.p0(i64 8, ptr %11) #11
  %14 = load ptr, ptr %7, align 8, !tbaa !9
  %15 = load ptr, ptr %8, align 8, !tbaa !9
  %16 = load i32, ptr %9, align 4, !tbaa !13
  %17 = load i32, ptr %10, align 4, !tbaa !13
  %18 = call ptr @parse_attr_line(ptr noundef %14, ptr noundef %15, i32 noundef %16, i32 noundef %17)
  store ptr %18, ptr %11, align 8, !tbaa !15
  %19 = load ptr, ptr %11, align 8, !tbaa !15
  %20 = icmp ne ptr %19, null
  br i1 %20, label %22, label %21

21:                                               ; preds = %5
  store i32 1, ptr %12, align 4
  br label %107

22:                                               ; preds = %5
  br label %23

23:                                               ; preds = %22
  call void @llvm.lifetime.start.p0(i64 8, ptr %13) #11
  %24 = load ptr, ptr %6, align 8, !tbaa !56
  %25 = getelementptr inbounds nuw %struct.attr_stack, ptr %24, i32 0, i32 3
  %26 = load i32, ptr %25, align 8, !tbaa !95
  %27 = add i32 %26, 1
  %28 = zext i32 %27 to i64
  store i64 %28, ptr %13, align 8, !tbaa !11
  %29 = load i64, ptr %13, align 8, !tbaa !11
  %30 = load ptr, ptr %6, align 8, !tbaa !56
  %31 = getelementptr inbounds nuw %struct.attr_stack, ptr %30, i32 0, i32 3
  %32 = load i32, ptr %31, align 8, !tbaa !95
  %33 = zext i32 %32 to i64
  %34 = icmp ult i64 %29, %33
  br i1 %34, label %35, label %36

35:                                               ; preds = %23
  call void (ptr, i32, ptr, ...) @BUG_fl(ptr noundef @.str.4, i32 noundef 654, ptr noundef @.str.27) #12
  unreachable

36:                                               ; preds = %23
  br label %37

37:                                               ; preds = %36
  %38 = load i64, ptr %13, align 8, !tbaa !11
  %39 = load ptr, ptr %6, align 8, !tbaa !56
  %40 = getelementptr inbounds nuw %struct.attr_stack, ptr %39, i32 0, i32 4
  %41 = load i32, ptr %40, align 4, !tbaa !127
  %42 = zext i32 %41 to i64
  %43 = icmp ugt i64 %38, %42
  br i1 %43, label %44, label %80

44:                                               ; preds = %37
  %45 = load ptr, ptr %6, align 8, !tbaa !56
  %46 = getelementptr inbounds nuw %struct.attr_stack, ptr %45, i32 0, i32 4
  %47 = load i32, ptr %46, align 4, !tbaa !127
  %48 = add i32 %47, 16
  %49 = mul i32 %48, 3
  %50 = udiv i32 %49, 2
  %51 = zext i32 %50 to i64
  %52 = load i64, ptr %13, align 8, !tbaa !11
  %53 = icmp ult i64 %51, %52
  br i1 %53, label %54, label %59

54:                                               ; preds = %44
  %55 = load i64, ptr %13, align 8, !tbaa !11
  %56 = trunc i64 %55 to i32
  %57 = load ptr, ptr %6, align 8, !tbaa !56
  %58 = getelementptr inbounds nuw %struct.attr_stack, ptr %57, i32 0, i32 4
  store i32 %56, ptr %58, align 4, !tbaa !127
  br label %68

59:                                               ; preds = %44
  %60 = load ptr, ptr %6, align 8, !tbaa !56
  %61 = getelementptr inbounds nuw %struct.attr_stack, ptr %60, i32 0, i32 4
  %62 = load i32, ptr %61, align 4, !tbaa !127
  %63 = add i32 %62, 16
  %64 = mul i32 %63, 3
  %65 = udiv i32 %64, 2
  %66 = load ptr, ptr %6, align 8, !tbaa !56
  %67 = getelementptr inbounds nuw %struct.attr_stack, ptr %66, i32 0, i32 4
  store i32 %65, ptr %67, align 4, !tbaa !127
  br label %68

68:                                               ; preds = %59, %54
  %69 = load ptr, ptr %6, align 8, !tbaa !56
  %70 = getelementptr inbounds nuw %struct.attr_stack, ptr %69, i32 0, i32 5
  %71 = load ptr, ptr %70, align 8, !tbaa !96
  %72 = load ptr, ptr %6, align 8, !tbaa !56
  %73 = getelementptr inbounds nuw %struct.attr_stack, ptr %72, i32 0, i32 4
  %74 = load i32, ptr %73, align 4, !tbaa !127
  %75 = zext i32 %74 to i64
  %76 = call i64 @st_mult(i64 noundef 8, i64 noundef %75)
  %77 = call ptr @xrealloc(ptr noundef %71, i64 noundef %76)
  %78 = load ptr, ptr %6, align 8, !tbaa !56
  %79 = getelementptr inbounds nuw %struct.attr_stack, ptr %78, i32 0, i32 5
  store ptr %77, ptr %79, align 8, !tbaa !96
  br label %80

80:                                               ; preds = %68, %37
  br label %81

81:                                               ; preds = %80
  br label %82

82:                                               ; preds = %81
  %83 = load ptr, ptr %6, align 8, !tbaa !56
  %84 = getelementptr inbounds nuw %struct.attr_stack, ptr %83, i32 0, i32 5
  %85 = load ptr, ptr %84, align 8, !tbaa !96
  %86 = load ptr, ptr %6, align 8, !tbaa !56
  %87 = getelementptr inbounds nuw %struct.attr_stack, ptr %86, i32 0, i32 3
  %88 = load i32, ptr %87, align 8, !tbaa !95
  %89 = zext i32 %88 to i64
  %90 = getelementptr inbounds nuw ptr, ptr %85, i64 %89
  call void @llvm.memset.p0.i64(ptr align 8 %90, i8 0, i64 8, i1 false)
  %91 = load i64, ptr %13, align 8, !tbaa !11
  %92 = trunc i64 %91 to i32
  %93 = load ptr, ptr %6, align 8, !tbaa !56
  %94 = getelementptr inbounds nuw %struct.attr_stack, ptr %93, i32 0, i32 3
  store i32 %92, ptr %94, align 8, !tbaa !95
  call void @llvm.lifetime.end.p0(i64 8, ptr %13) #11
  br label %95

95:                                               ; preds = %82
  br label %96

96:                                               ; preds = %95
  %97 = load ptr, ptr %11, align 8, !tbaa !15
  %98 = load ptr, ptr %6, align 8, !tbaa !56
  %99 = getelementptr inbounds nuw %struct.attr_stack, ptr %98, i32 0, i32 5
  %100 = load ptr, ptr %99, align 8, !tbaa !96
  %101 = load ptr, ptr %6, align 8, !tbaa !56
  %102 = getelementptr inbounds nuw %struct.attr_stack, ptr %101, i32 0, i32 3
  %103 = load i32, ptr %102, align 8, !tbaa !95
  %104 = sub i32 %103, 1
  %105 = zext i32 %104 to i64
  %106 = getelementptr inbounds nuw ptr, ptr %100, i64 %105
  store ptr %97, ptr %106, align 8, !tbaa !15
  store i32 0, ptr %12, align 4
  br label %107

107:                                              ; preds = %96, %21
  call void @llvm.lifetime.end.p0(i64 8, ptr %11) #11
  %108 = load i32, ptr %12, align 4
  switch i32 %108, label %110 [
    i32 0, label %109
    i32 1, label %109
  ]

109:                                              ; preds = %107, %107
  ret void

110:                                              ; preds = %107
  unreachable
}

; Function Attrs: inlinehint nounwind uwtable
define internal ptr @_(ptr noundef %0) #5 {
  %2 = alloca ptr, align 8
  %3 = alloca ptr, align 8
  store ptr %0, ptr %3, align 8, !tbaa !9
  %4 = load ptr, ptr %3, align 8, !tbaa !9
  %5 = load i8, ptr %4, align 1, !tbaa !17
  %6 = icmp ne i8 %5, 0
  br i1 %6, label %8, label %7

7:                                                ; preds = %1
  store ptr @.str.14, ptr %2, align 8
  br label %16

8:                                                ; preds = %1
  %9 = load i32, ptr @git_gettext_enabled, align 4, !tbaa !13
  %10 = icmp ne i32 %9, 0
  br i1 %10, label %13, label %11

11:                                               ; preds = %8
  %12 = load ptr, ptr %3, align 8, !tbaa !9
  store ptr %12, ptr %2, align 8
  br label %16

13:                                               ; preds = %8
  %14 = load ptr, ptr %3, align 8, !tbaa !9
  %15 = call ptr @dcgettext(ptr noundef null, ptr noundef %14, i32 noundef 5) #11
  store ptr %15, ptr %2, align 8
  br label %16

16:                                               ; preds = %13, %11, %7
  %17 = load ptr, ptr %2, align 8
  ret ptr %17
}

; Function Attrs: nounwind uwtable
define internal ptr @read_attr_from_file(ptr noundef %0, i32 noundef %1) #0 {
  %3 = alloca ptr, align 8
  %4 = alloca ptr, align 8
  %5 = alloca i32, align 4
  %6 = alloca %struct.strbuf, align 8
  %7 = alloca i32, align 4
  %8 = alloca ptr, align 8
  %9 = alloca ptr, align 8
  %10 = alloca i32, align 4
  %11 = alloca %struct.stat, align 8
  %12 = alloca i32, align 4
  store ptr %0, ptr %4, align 8, !tbaa !9
  store i32 %1, ptr %5, align 4, !tbaa !13
  call void @llvm.lifetime.start.p0(i64 24, ptr %6) #11
  call void @llvm.memcpy.p0.p0.i64(ptr align 8 %6, ptr align 8 @__const.read_attr_from_file.buf, i64 24, i1 false)
  call void @llvm.lifetime.start.p0(i64 4, ptr %7) #11
  call void @llvm.lifetime.start.p0(i64 8, ptr %8) #11
  call void @llvm.lifetime.start.p0(i64 8, ptr %9) #11
  call void @llvm.lifetime.start.p0(i64 4, ptr %10) #11
  store i32 0, ptr %10, align 4, !tbaa !13
  call void @llvm.lifetime.start.p0(i64 144, ptr %11) #11
  %13 = load i32, ptr %5, align 4, !tbaa !13
  %14 = and i32 %13, 2
  %15 = icmp ne i32 %14, 0
  br i1 %15, label %16, label %19

16:                                               ; preds = %2
  %17 = load ptr, ptr %4, align 8, !tbaa !9
  %18 = call i32 @open_nofollow(ptr noundef %17, i32 noundef 0)
  store i32 %18, ptr %7, align 4, !tbaa !13
  br label %22

19:                                               ; preds = %2
  %20 = load ptr, ptr %4, align 8, !tbaa !9
  %21 = call i32 (ptr, i32, ...) @open64(ptr noundef %20, i32 noundef 0)
  store i32 %21, ptr %7, align 4, !tbaa !13
  br label %22

22:                                               ; preds = %19, %16
  %23 = load i32, ptr %7, align 4, !tbaa !13
  %24 = icmp slt i32 %23, 0
  br i1 %24, label %25, label %28

25:                                               ; preds = %22
  %26 = load ptr, ptr %4, align 8, !tbaa !9
  %27 = call i32 @warn_on_fopen_errors(ptr noundef %26)
  store ptr null, ptr %3, align 8
  store i32 1, ptr %12, align 4
  br label %76

28:                                               ; preds = %22
  %29 = load i32, ptr %7, align 4, !tbaa !13
  %30 = call ptr @xfdopen(i32 noundef %29, ptr noundef @.str.29)
  store ptr %30, ptr %8, align 8, !tbaa !21
  %31 = load i32, ptr %7, align 4, !tbaa !13
  %32 = call i32 @fstat64(i32 noundef %31, ptr noundef %11) #11
  %33 = icmp ne i32 %32, 0
  br i1 %33, label %34, label %39

34:                                               ; preds = %28
  %35 = call ptr @_(ptr noundef @.str.30)
  %36 = load ptr, ptr %4, align 8, !tbaa !9
  call void (ptr, ...) @warning_errno(ptr noundef %35, ptr noundef %36)
  %37 = load ptr, ptr %8, align 8, !tbaa !21
  %38 = call i32 @fclose(ptr noundef %37)
  store ptr null, ptr %3, align 8
  store i32 1, ptr %12, align 4
  br label %76

39:                                               ; preds = %28
  %40 = getelementptr inbounds nuw %struct.stat, ptr %11, i32 0, i32 8
  %41 = load i64, ptr %40, align 8, !tbaa !123
  %42 = icmp sge i64 %41, 104857600
  br i1 %42, label %43, label %48

43:                                               ; preds = %39
  %44 = call ptr @_(ptr noundef @.str.31)
  %45 = load ptr, ptr %4, align 8, !tbaa !9
  call void (ptr, ...) @warning(ptr noundef %44, ptr noundef %45)
  %46 = load ptr, ptr %8, align 8, !tbaa !21
  %47 = call i32 @fclose(ptr noundef %46)
  store ptr null, ptr %3, align 8
  store i32 1, ptr %12, align 4
  br label %76

48:                                               ; preds = %39
  %49 = call ptr @xcalloc(i64 noundef 1, i64 noundef 40)
  store ptr %49, ptr %9, align 8, !tbaa !56
  br label %50

50:                                               ; preds = %64, %48
  %51 = load ptr, ptr %8, align 8, !tbaa !21
  %52 = call i32 @strbuf_getline(ptr noundef %6, ptr noundef %51)
  %53 = icmp ne i32 %52, -1
  br i1 %53, label %54, label %72

54:                                               ; preds = %50
  %55 = load i32, ptr %10, align 4, !tbaa !13
  %56 = icmp ne i32 %55, 0
  br i1 %56, label %64, label %57

57:                                               ; preds = %54
  %58 = getelementptr inbounds nuw %struct.strbuf, ptr %6, i32 0, i32 2
  %59 = load ptr, ptr %58, align 8, !tbaa !18
  %60 = call i32 @starts_with(ptr noundef %59, ptr noundef @utf8_bom)
  %61 = icmp ne i32 %60, 0
  br i1 %61, label %62, label %64

62:                                               ; preds = %57
  %63 = call i64 @strlen(ptr noundef @utf8_bom) #10
  call void @strbuf_remove(ptr noundef %6, i64 noundef 0, i64 noundef %63)
  br label %64

64:                                               ; preds = %62, %57, %54
  %65 = load ptr, ptr %9, align 8, !tbaa !56
  %66 = getelementptr inbounds nuw %struct.strbuf, ptr %6, i32 0, i32 2
  %67 = load ptr, ptr %66, align 8, !tbaa !18
  %68 = load ptr, ptr %4, align 8, !tbaa !9
  %69 = load i32, ptr %10, align 4, !tbaa !13
  %70 = add nsw i32 %69, 1
  store i32 %70, ptr %10, align 4, !tbaa !13
  %71 = load i32, ptr %5, align 4, !tbaa !13
  call void @handle_attr_line(ptr noundef %65, ptr noundef %67, ptr noundef %68, i32 noundef %70, i32 noundef %71)
  br label %50, !llvm.loop !126

72:                                               ; preds = %50
  %73 = load ptr, ptr %8, align 8, !tbaa !21
  %74 = call i32 @fclose(ptr noundef %73)
  call void @strbuf_release(ptr noundef %6)
  %75 = load ptr, ptr %9, align 8, !tbaa !56
  store ptr %75, ptr %3, align 8
  store i32 1, ptr %12, align 4
  br label %76

76:                                               ; preds = %72, %43, %34, %25
  call void @llvm.lifetime.end.p0(i64 144, ptr %11) #11
  call void @llvm.lifetime.end.p0(i64 4, ptr %10) #11
  call void @llvm.lifetime.end.p0(i64 8, ptr %9) #11
  call void @llvm.lifetime.end.p0(i64 8, ptr %8) #11
  call void @llvm.lifetime.end.p0(i64 4, ptr %7) #11
  call void @llvm.lifetime.end.p0(i64 24, ptr %6) #11
  %77 = load ptr, ptr %3, align 8
  ret ptr %77
}