; Function Attrs: nounwind uwtable
define internal fastcc ptr @read_attr_from_file(ptr noundef %0, i32 noundef range(i32 1, 4) %1) unnamed_addr #1 {
  %3 = alloca %struct.strbuf, align 8
  %4 = alloca %struct.stat, align 8
  call void @llvm.lifetime.start.p0(i64 24, ptr nonnull %3) #21
  call void @llvm.memcpy.p0.p0.i64(ptr noundef nonnull align 8 dereferenceable(24) %3, ptr noundef nonnull align 8 dereferenceable(24) @__const.git_pathdup.path, i64 24, i1 false)
  call void @llvm.lifetime.start.p0(i64 144, ptr nonnull %4) #21
  %.not = icmp samesign ult i32 %1, 2
  br i1 %.not, label %7, label %5

5:                                                ; preds = %2
  %6 = tail call i32 @open_nofollow(ptr noundef %0, i32 noundef 0) #21
  br label %9

7:                                                ; preds = %2
  %8 = tail call i32 (ptr, i32, ...) @open64(ptr noundef %0, i32 noundef 0) #21
  br label %9

9:                                                ; preds = %7, %5
  %.020 = phi i32 [ %6, %5 ], [ %8, %7 ]
  %10 = icmp slt i32 %.020, 0
  br i1 %10, label %11, label %13

11:                                               ; preds = %9
  %12 = tail call i32 @warn_on_fopen_errors(ptr noundef %0) #21
  br label %69

13:                                               ; preds = %9
  %14 = tail call ptr @xfdopen(i32 noundef %.020, ptr noundef nonnull @.str.29) #21
  %15 = call i32 @fstat64(i32 noundef %.020, ptr noundef nonnull %4) #21
  %.not21 = icmp eq i32 %15, 0
  br i1 %.not21, label %21, label %16

16:                                               ; preds = %13
  %17 = load i32, ptr @git_gettext_enabled, align 4, !tbaa !22
  %.not4.i = icmp eq i32 %17, 0
  br i1 %.not4.i, label %_.exit, label %18

18:                                               ; preds = %16
  %19 = tail call ptr @dcgettext(ptr noundef null, ptr noundef nonnull @.str.30, i32 noundef 5) #21
  br label %_.exit

_.exit:                                           ; preds = %16, %18
  %.0.i = phi ptr [ %19, %18 ], [ @.str.30, %16 ]
  tail call void (ptr, ...) @warning_errno(ptr noundef %.0.i, ptr noundef %0) #21
  %20 = tail call i32 @fclose(ptr noundef %14)
  br label %69

21:                                               ; preds = %13
  %22 = getelementptr inbounds nuw i8, ptr %4, i64 48
  %23 = load i64, ptr %22, align 8, !tbaa !127
  %24 = icmp sgt i64 %23, 104857599
  br i1 %24, label %25, label %30

25:                                               ; preds = %21
  %26 = load i32, ptr @git_gettext_enabled, align 4, !tbaa !22
  %.not4.i25 = icmp eq i32 %26, 0
  br i1 %.not4.i25, label %_.exit27, label %27

27:                                               ; preds = %25
  %28 = tail call ptr @dcgettext(ptr noundef null, ptr noundef nonnull @.str.31, i32 noundef 5) #21
  br label %_.exit27

_.exit27:                                         ; preds = %25, %27
  %.0.i26 = phi ptr [ %28, %27 ], [ @.str.31, %25 ]
  tail call void (ptr, ...) @warning(ptr noundef %.0.i26, ptr noundef %0) #21
  %29 = tail call i32 @fclose(ptr noundef %14)
  br label %69

30:                                               ; preds = %21
  %31 = tail call ptr @xcalloc(i64 noundef 1, i64 noundef 40) #21
  %32 = call i32 @strbuf_getline(ptr noundef nonnull %3, ptr noundef %14) #21
  %.not2228 = icmp eq i32 %32, -1
  br i1 %.not2228, label %._crit_edge, label %.lr.ph

.lr.ph:                                           ; preds = %30
  %33 = getelementptr inbounds nuw i8, ptr %3, i64 16
  %34 = getelementptr inbounds nuw i8, ptr %31, i64 24
  %35 = getelementptr inbounds nuw i8, ptr %31, i64 28
  %.phi.trans.insert.i = getelementptr inbounds nuw i8, ptr %31, i64 32
  br label %36

36:                                               ; preds = %.lr.ph, %handle_attr_line.exit
  %.029 = phi i32 [ 0, %.lr.ph ], [ %44, %handle_attr_line.exit ]
  %.not23 = icmp eq i32 %.029, 0
  br i1 %.not23, label %37, label %42

37:                                               ; preds = %36
  %38 = load ptr, ptr %33, align 8, !tbaa !23
  %39 = call i32 @starts_with(ptr noundef %38, ptr noundef nonnull @utf8_bom) #21
  %.not24 = icmp eq i32 %39, 0
  br i1 %.not24, label %42, label %40

40:                                               ; preds = %37
  %41 = call i64 @strlen(ptr noundef nonnull dereferenceable(1) @utf8_bom) #20
  call void @strbuf_remove(ptr noundef nonnull %3, i64 noundef 0, i64 noundef %41) #21
  br label %42

42:                                               ; preds = %40, %37, %36
  %43 = load ptr, ptr %33, align 8, !tbaa !23
  %44 = add nuw nsw i32 %.029, 1
  %45 = call ptr @parse_attr_line(ptr noundef %43, ptr noundef %0, i32 noundef range(i32 -2147483647, -2147483648) %44, i32 noundef range(i32 1, 4) %1)
  %.not.i = icmp eq ptr %45, null
  br i1 %.not.i, label %handle_attr_line.exit, label %46

46:                                               ; preds = %42
  %47 = load i32, ptr %34, align 8, !tbaa !65
  %48 = add i32 %47, 1
  %49 = zext i32 %47 to i64
  %50 = icmp eq i32 %47, -1
  br i1 %50, label %51, label %52

51:                                               ; preds = %46
  call void (ptr, i32, ptr, ...) @BUG_fl(ptr noundef nonnull @.str.4, i32 noundef 654, ptr noundef nonnull @.str.27) #22
  unreachable

52:                                               ; preds = %46
  %53 = load i32, ptr %35, align 4, !tbaa !106
  %54 = icmp ugt i32 %48, %53
  br i1 %54, label %st_mult.exit.i, label %._crit_edge.i

._crit_edge.i:                                    ; preds = %52
  %.pre.i = load ptr, ptr %.phi.trans.insert.i, align 8, !tbaa !66
  br label %62

st_mult.exit.i:                                   ; preds = %52
  %55 = mul i32 %53, 3
  %56 = add i32 %55, 48
  %57 = lshr i32 %56, 1
  %..i = call i32 @llvm.umax.i32(i32 %57, i32 %48)
  store i32 %..i, ptr %35, align 4, !tbaa !106
  %58 = zext i32 %..i to i64
  %59 = load ptr, ptr %.phi.trans.insert.i, align 8, !tbaa !66
  %60 = shl nuw nsw i64 %58, 3
  %61 = call ptr @xrealloc(ptr noundef %59, i64 noundef %60) #21
  store ptr %61, ptr %.phi.trans.insert.i, align 8, !tbaa !66
  %.pre28.i = load i32, ptr %34, align 8, !tbaa !65
  %.pre29.i = zext i32 %.pre28.i to i64
  br label %62

62:                                               ; preds = %st_mult.exit.i, %._crit_edge.i
  %.pre-phi.i = phi i64 [ %49, %._crit_edge.i ], [ %.pre29.i, %st_mult.exit.i ]
  %63 = phi ptr [ %.pre.i, %._crit_edge.i ], [ %61, %st_mult.exit.i ]
  %64 = getelementptr inbounds nuw ptr, ptr %63, i64 %.pre-phi.i
  store i64 0, ptr %64, align 8
  store i32 %48, ptr %34, align 8, !tbaa !65
  %65 = load ptr, ptr %.phi.trans.insert.i, align 8, !tbaa !66
  %66 = getelementptr inbounds nuw ptr, ptr %65, i64 %49
  store ptr %45, ptr %66, align 8, !tbaa !67
  br label %handle_attr_line.exit

handle_attr_line.exit:                            ; preds = %42, %62
  %67 = call i32 @strbuf_getline(ptr noundef nonnull %3, ptr noundef %14) #21
  %.not22 = icmp eq i32 %67, -1
  br i1 %.not22, label %._crit_edge, label %36, !llvm.loop !128

._crit_edge:                                      ; preds = %handle_attr_line.exit, %30
  %68 = call i32 @fclose(ptr noundef %14)
  call void @strbuf_release(ptr noundef nonnull %3) #21
  br label %69

69:                                               ; preds = %._crit_edge, %_.exit27, %_.exit, %11
  %.019 = phi ptr [ null, %11 ], [ null, %_.exit ], [ null, %_.exit27 ], [ %31, %._crit_edge ]
  call void @llvm.lifetime.end.p0(i64 144, ptr nonnull %4) #21
  call void @llvm.lifetime.end.p0(i64 24, ptr nonnull %3) #21
  ret ptr %.019
}